Certificate:
    Data:
        Version: 3 (0x2)
        Serial Number:
            df:91:52:7c:27:43:96:67:fe:a7:34:71:95:58:40:a3
        Signature Algorithm: sha256WithRSAEncryption
        Issuer: CN=ethhak.kth
        Validity
            Not Before: Aug 28 16:46:38 2023 GMT
            Not After : Aug 12 16:46:38 2026 GMT
        Subject: CN=ep274v-w8-s2
        Subject Public Key Info:
            Public Key Algorithm: rsaEncryption
                RSA Public-Key: (1024 bit)
                Modulus:
                    00:c2:4b:81:e6:cb:33:e3:4e:1a:a4:46:21:85:c0:
                    4c:37:65:f1:81:aa:a9:48:39:a2:8d:bd:39:ee:56:
                    11:0f:7b:b2:5c:30:62:07:99:08:65:37:52:bc:56:
                    ae:71:10:4c:6f:d7:8c:14:74:d1:df:29:1c:79:95:
                    bc:aa:b8:63:7e:02:b0:5d:d9:f5:ff:4c:0f:92:54:
                    a3:4b:58:88:93:7c:6a:b8:c3:32:d5:6a:ba:0b:e9:
                    52:a5:0f:df:e7:a8:ab:b9:ef:cc:3e:1f:37:a9:ac:
                    98:e1:19:fe:22:db:21:bf:15:74:eb:c9:46:21:db:
                    17:5e:d8:76:ba:2a:ca:6e:5b
                Exponent: 65537 (0x10001)
        X509v3 extensions:
            X509v3 Basic Constraints: 
                CA:FALSE
            X509v3 Subject Key Identifier: 
                81:A1:2A:A6:C7:DF:B2:16:B1:15:A6:36:4B:E9:36:6C:89:A2:A0:AA
            X509v3 Authority Key Identifier: 
                keyid:43:88:16:4A:80:E7:39:A3:70:70:E3:5E:78:08:57:97:57:E1:1A:49
                DirName:/CN=ethhak.kth
                serial:15:AF:C1:EC:07:EC:F2:1D:D8:D0:CB:2B:76:C8:FB:58:44:AC:70:B1

            X509v3 Extended Key Usage: 
                TLS Web Client Authentication
            X509v3 Key Usage: 
                Digital Signature
    Signature Algorithm: sha256WithRSAEncryption
         ae:c7:dc:9c:59:a4:37:df:18:a4:48:66:b6:43:fa:af:fd:10:
         66:15:ab:71:23:42:14:f6:e5:70:dc:94:e4:e0:14:7e:4e:c4:
         b0:ce:45:c5:90:af:27:f0:ba:17:ac:41:81:fe:2b:a1:f4:37:
         a2:70:e6:0f:d7:05:de:02:a2:95:94:9c:36:4c:18:45:0a:b2:
         02:b6:55:68:ea:65:3f:ee:df:81:e5:5e:1a:13:97:8b:f0:b2:
         24:6e:dd:61:1a:b5:50:ff:01:19:e3:54:86:01:46:ed:d8:14:
         ba:9c:a1:0c:fe:3a:c5:04:41:40:6a:67:18:35:e2:34:a7:bd:
         33:c2
-----BEGIN CERTIFICATE-----
MIICVDCCAb2gAwIBAgIRAN+RUnwnQ5Zn/qc0cZVYQKMwDQYJKoZIhvcNAQELBQAw
FTETMBEGA1UEAwwKZXRoaGFrLmt0aDAeFw0yMzA4MjgxNjQ2MzhaFw0yNjA4MTIx
NjQ2MzhaMBcxFTATBgNVBAMMDGVwMjc0di13OC1zMjCBnzANBgkqhkiG9w0BAQEF
AAOBjQAwgYkCgYEAwkuB5ssz404apEYhhcBMN2XxgaqpSDmijb057lYRD3uyXDBi
B5kIZTdSvFaucRBMb9eMFHTR3ykceZW8qrhjfgKwXdn1/0wPklSjS1iIk3xquMMy
1Wq6C+lSpQ/f56irue/MPh83qayY4Rn+ItshvxV068lGIdsXXth2uirKblsCAwEA
AaOBoTCBnjAJBgNVHRMEAjAAMB0GA1UdDgQWBBSBoSqmx9+yFrEVpjZL6TZsiaKg
qjBQBgNVHSMESTBHgBRDiBZKgOc5o3Bw4154CFeXV+EaSaEZpBcwFTETMBEGA1UE
AwwKZXRoaGFrLmt0aIIUFa/B7Afs8h3Y0Msrdsj7WESscLEwEwYDVR0lBAwwCgYI
KwYBBQUHAwIwCwYDVR0PBAQDAgeAMA0GCSqGSIb3DQEBCwUAA4GBAK7H3JxZpDff
GKRIZrZD+q/9EGYVq3EjQhT25XDclOTgFH5OxLDORcWQryfwuhesQYH+K6H0N6Jw
5g/XBd4CopWUnDZMGEUKsgK2VWjqZT/u34HlXhoTl4vwsiRu3WEatVD/ARnjVIYB
Ru3YFLqcoQz+OsUEQUBqZxg14jSnvTPC
-----END CERTIFICATE-----
